; ModuleID = '54/182.c'
source_filename = "54/182.c"
target datalayout = "e-m:e-p270:32:32-p271:32:32-p272:64:64-i64:64-f80:128-n8:16:32:64-S128"
target triple = "x86_64-pc-linux-gnu"

@.str = private unnamed_addr constant [6 x i8] c"%d %d\00", align 1
@.str.1 = private unnamed_addr constant [3 x i8] c"%d\00", align 1

; Function Attrs: noinline nounwind uwtable
define dso_local void @main() #0 {
  %1 = alloca i32, align 4
  %2 = alloca i32, align 4
  %3 = alloca i32, align 4
  %4 = alloca i32, align 4
  %5 = call i32 (i8*, ...) @__isoc99_scanf(i8* getelementptr inbounds ([6 x i8], [6 x i8]* @.str, i64 0, i64 0), i32* %1, i32* %2)
  %6 = load i32, i32* %1, align 4
  %7 = icmp ne i32 %6, 2
  br i1 %7, label %8, label %23

8:                                                ; preds = %0
  %9 = load i32, i32* %1, align 4
  %10 = sitofp i32 %9 to double
  %11 = load i32, i32* %1, align 4
  %12 = sitofp i32 %11 to double
  %13 = call double @pow(double %10, double %12) #3
  %14 = load i32, i32* %1, align 4
  %15 = sub nsw i32 %14, 1
  %16 = load i32, i32* %2, align 4
  %17 = mul nsw i32 %15, %16
  %18 = sitofp i32 %17 to double
  %19 = fsub double %13, %18
  %20 = fptosi double %19 to i32
  store i32 %20, i32* %3, align 4
  %21 = load i32, i32* %3, align 4
  %22 = call i32 (i8*, ...) @printf(i8* getelementptr inbounds ([3 x i8], [3 x i8]* @.str.1, i64 0, i64 0), i32 %21)
  br label %25

23:                                               ; preds = %0
  %24 = call i32 (i8*, ...) @printf(i8* getelementptr inbounds ([3 x i8], [3 x i8]* @.str.1, i64 0, i64 0), i32 7)
  br label %25

25:                                               ; preds = %23, %8
  ret void
}

declare dso_local i32 @__isoc99_scanf(i8*, ...) #1

; Function Attrs: nounwind
declare dso_local double @pow(double, double) #2

declare dso_local i32 @printf(i8*, ...) #1


!llvm.module.flags = !{!0}
!llvm.ident = !{!1}

!0 = !{i32 1, !"wchar_size", i32 4}
!1 = !{!"clang version 10.0.0-4ubuntu1 "}
